target datalayout = "e-m:e-p270:32:32-p271:32:32-p272:64:64-i64:64-i128:128-f80:128-n8:16:32:64-S128"
target triple = "x86_64-unknown-linux-gnu"

%"class.v8::LocalBase.3" = type { %"class.v8::IndirectHandleBase" }
%"class.v8::IndirectHandleBase" = type { ptr }
%"class.v8::Local.2" = type { %"class.v8::LocalBase.3" }
%"class.std::_Function_base" = type { %"union.std::_Any_data", ptr }
%"union.std::_Any_data" = type { %"union.std::_Nocopy_types" }
%"union.std::_Nocopy_types" = type { { i64, i64 } }
%"class.std::function.233" = type { %"class.std::_Function_base", ptr }
%"class.v8::MaybeLocal" = type { %"class.v8::Local.2" }

; Function Attrs: mustprogress nounwind uwtable
define linkonce_odr dso_local noundef zeroext i1 @_ZNKSt14_Function_base8_M_emptyEv(ptr noundef nonnull align 8 dereferenceable(24) %this) #4 comdat align 2 {
entry:
  %this.addr = alloca ptr, align 8
  store ptr %this, ptr %this.addr, align 8
  %this1 = load ptr, ptr %this.addr, align 8
  %_M_manager = getelementptr inbounds %"class.std::_Function_base", ptr %this1, i32 0, i32 1
  %0 = load ptr, ptr %_M_manager, align 8
  %tobool = icmp ne ptr %0, null
  %lnot = xor i1 %tobool, true
  ret i1 %lnot
}

; Function Attrs: mustprogress nounwind uwtable
define linkonce_odr dso_local void @_ZNSt14_Function_baseD2Ev(ptr noundef nonnull align 8 dereferenceable(24) %this) unnamed_addr #4 comdat align 2 {
entry:
  %this.addr = alloca ptr, align 8
  store ptr %this, ptr %this.addr, align 8
  %this1 = load ptr, ptr %this.addr, align 8
  %_M_manager = getelementptr inbounds %"class.std::_Function_base", ptr %this1, i32 0, i32 1
  %0 = load ptr, ptr %_M_manager, align 8
  %tobool = icmp ne ptr %0, null
  br i1 %tobool, label %if.then, label %if.end

if.then:                                          ; preds = %entry
  %_M_manager2 = getelementptr inbounds %"class.std::_Function_base", ptr %this1, i32 0, i32 1
  %1 = load ptr, ptr %_M_manager2, align 8
  %_M_functor = getelementptr inbounds %"class.std::_Function_base", ptr %this1, i32 0, i32 0
  %_M_functor3 = getelementptr inbounds %"class.std::_Function_base", ptr %this1, i32 0, i32 0
  %call = call noundef zeroext i1 %1(ptr noundef nonnull align 8 dereferenceable(16) %_M_functor, ptr noundef nonnull align 8 dereferenceable(16) %_M_functor3, i32 noundef 3)
  br label %if.end

if.end:                                           ; preds = %if.then, %entry
  ret void
}

; Function Attrs: mustprogress nounwind uwtable
define linkonce_odr dso_local noundef zeroext i1 @_ZNKSt8functionIFN2v810MaybeLocalINS0_5ValueEEERKN4node26StartExecutionCallbackInfoEEEcvbEv(ptr noundef nonnull align 8 dereferenceable(32) %this) #4 comdat align 2 {
entry:
  %this.addr = alloca ptr, align 8
  store ptr %this, ptr %this.addr, align 8
  %this1 = load ptr, ptr %this.addr, align 8
  %call = call noundef zeroext i1 @_ZNKSt14_Function_base8_M_emptyEv(ptr noundef nonnull align 8 dereferenceable(24) %this1)
  %lnot = xor i1 %call, true
  ret i1 %lnot
}

; Function Attrs: mustprogress nounwind uwtable
define linkonce_odr dso_local void @_ZNSt14_Function_baseC2Ev(ptr noundef nonnull align 8 dereferenceable(24) %this) unnamed_addr #4 comdat align 2 {
entry:
  %this.addr = alloca ptr, align 8
  store ptr %this, ptr %this.addr, align 8
  %this1 = load ptr, ptr %this.addr, align 8
  %_M_functor = getelementptr inbounds %"class.std::_Function_base", ptr %this1, i32 0, i32 0
  store ptr null, ptr %_M_functor, align 8
  %_M_manager = getelementptr inbounds %"class.std::_Function_base", ptr %this1, i32 0, i32 1
  store ptr null, ptr %_M_manager, align 8
  ret void
}

; Function Attrs: mustprogress nounwind uwtable
define linkonce_odr dso_local void @_ZNSt8functionIFN2v810MaybeLocalINS0_5ValueEEERKN4node26StartExecutionCallbackInfoEEED2Ev(ptr noundef nonnull align 8 dereferenceable(32) %this) unnamed_addr #4 comdat align 2 {
entry:
  %this.addr = alloca ptr, align 8
  store ptr %this, ptr %this.addr, align 8
  %this1 = load ptr, ptr %this.addr, align 8
  call void @_ZNSt14_Function_baseD2Ev(ptr noundef nonnull align 8 dereferenceable(24) %this1) #3
  ret void
}

; Function Attrs: mustprogress nounwind uwtable
define linkonce_odr dso_local void @_ZNSt8functionIFN2v810MaybeLocalINS0_5ValueEEERKN4node26StartExecutionCallbackInfoEEEC2ERKS9_(ptr noundef nonnull align 8 dereferenceable(32) %this, ptr noundef nonnull align 8 dereferenceable(32) %__x) unnamed_addr #4 comdat align 2 {
entry:
  %this.addr = alloca ptr, align 8
  %__x.addr = alloca ptr, align 8
  store ptr %this, ptr %this.addr, align 8
  store ptr %__x, ptr %__x.addr, align 8
  %this1 = load ptr, ptr %this.addr, align 8
  %0 = getelementptr inbounds i8, ptr %this1, i64 0
  call void @llvm.memset.p0.i64(ptr align 8 %0, i8 0, i64 24, i1 false)
  call void @_ZNSt14_Function_baseC2Ev(ptr noundef nonnull align 8 dereferenceable(24) %this1) #3
  %_M_invoker = getelementptr inbounds %"class.std::function.233", ptr %this1, i32 0, i32 1
  store ptr null, ptr %_M_invoker, align 8
  %1 = load ptr, ptr %__x.addr, align 8
  %call = call noundef zeroext i1 @_ZNKSt8functionIFN2v810MaybeLocalINS0_5ValueEEERKN4node26StartExecutionCallbackInfoEEEcvbEv(ptr noundef nonnull align 8 dereferenceable(32) %1) #3
  br i1 %call, label %if.then, label %if.end

if.then:                                          ; preds = %entry
  %2 = load ptr, ptr %__x.addr, align 8
  %_M_manager = getelementptr inbounds %"class.std::_Function_base", ptr %2, i32 0, i32 1
  %3 = load ptr, ptr %_M_manager, align 8
  %_M_functor = getelementptr inbounds %"class.std::_Function_base", ptr %this1, i32 0, i32 0
  %4 = load ptr, ptr %__x.addr, align 8
  %_M_functor2 = getelementptr inbounds %"class.std::_Function_base", ptr %4, i32 0, i32 0
  %call3 = call noundef zeroext i1 %3(ptr noundef nonnull align 8 dereferenceable(16) %_M_functor, ptr noundef nonnull align 8 dereferenceable(16) %_M_functor2, i32 noundef 2)
  %5 = load ptr, ptr %__x.addr, align 8
  %_M_invoker4 = getelementptr inbounds %"class.std::function.233", ptr %5, i32 0, i32 1
  %6 = load ptr, ptr %_M_invoker4, align 8
  %_M_invoker5 = getelementptr inbounds %"class.std::function.233", ptr %this1, i32 0, i32 1
  store ptr %6, ptr %_M_invoker5, align 8
  %7 = load ptr, ptr %__x.addr, align 8
  %_M_manager6 = getelementptr inbounds %"class.std::_Function_base", ptr %7, i32 0, i32 1
  %8 = load ptr, ptr %_M_manager6, align 8
  %_M_manager7 = getelementptr inbounds %"class.std::_Function_base", ptr %this1, i32 0, i32 1
  store ptr %8, ptr %_M_manager7, align 8
  br label %if.end

if.end:                                           ; preds = %if.then, %entry
  ret void
}

; Function Attrs: mustprogress nounwind uwtable
define dso_local ptr @_ZN4node15LoadEnvironmentEPNS_11EnvironmentESt8functionIFN2v810MaybeLocalINS3_5ValueEEERKNS_26StartExecutionCallbackInfoEEE(ptr noundef %env, ptr noundef %cb) #4 {
entry:
  %retval = alloca %"class.v8::MaybeLocal", align 8
  %env.addr = alloca ptr, align 8
  %cb.indirect_addr = alloca ptr, align 8
  %agg.tmp = alloca %"class.std::function.233", align 8
  store ptr %env, ptr %env.addr, align 8
  store ptr %cb, ptr %cb.indirect_addr, align 8
  %0 = load ptr, ptr %env.addr, align 8
  call void @_ZN4node11Environment15InitializeLibuvEv(ptr noundef nonnull align 8 dereferenceable(2872) %0)
  %1 = load ptr, ptr %env.addr, align 8
  call void @_ZN4node11Environment21InitializeDiagnosticsEv(ptr noundef nonnull align 8 dereferenceable(2872) %1)
  %2 = load ptr, ptr %env.addr, align 8
  call void @_ZNSt8functionIFN2v810MaybeLocalINS0_5ValueEEERKN4node26StartExecutionCallbackInfoEEEC2ERKS9_(ptr noundef nonnull align 8 dereferenceable(32) %agg.tmp, ptr noundef nonnull align 8 dereferenceable(32) %cb)
  %call = call ptr @_ZN4node14StartExecutionEPNS_11EnvironmentESt8functionIFN2v810MaybeLocalINS3_5ValueEEERKNS_26StartExecutionCallbackInfoEEE(ptr noundef %2, ptr noundef %agg.tmp)
  %coerce.dive = getelementptr inbounds %"class.v8::MaybeLocal", ptr %retval, i32 0, i32 0
  %coerce.dive1 = getelementptr inbounds %"class.v8::Local.2", ptr %coerce.dive, i32 0, i32 0
  %coerce.dive2 = getelementptr inbounds %"class.v8::LocalBase.3", ptr %coerce.dive1, i32 0, i32 0
  %coerce.dive3 = getelementptr inbounds %"class.v8::IndirectHandleBase", ptr %coerce.dive2, i32 0, i32 0
  store ptr %call, ptr %coerce.dive3, align 8
  call void @_ZNSt8functionIFN2v810MaybeLocalINS0_5ValueEEERKN4node26StartExecutionCallbackInfoEEED2Ev(ptr noundef nonnull align 8 dereferenceable(32) %agg.tmp) #3
  %coerce.dive4 = getelementptr inbounds %"class.v8::MaybeLocal", ptr %retval, i32 0, i32 0
  %coerce.dive5 = getelementptr inbounds %"class.v8::Local.2", ptr %coerce.dive4, i32 0, i32 0
  %coerce.dive6 = getelementptr inbounds %"class.v8::LocalBase.3", ptr %coerce.dive5, i32 0, i32 0
  %coerce.dive7 = getelementptr inbounds %"class.v8::IndirectHandleBase", ptr %coerce.dive6, i32 0, i32 0
  %3 = load ptr, ptr %coerce.dive7, align 8
  ret ptr %3
}