; Function Attrs: mustprogress nounwind uwtable
define dso_local ptr @_ZN4node15LoadEnvironmentEPNS_11EnvironmentESt8functionIFN2v810MaybeLocalINS3_5ValueEEERKNS_26StartExecutionCallbackInfoEEE(ptr noundef nonnull %env, ptr noundef %cb) local_unnamed_addr #3 {
entry:
  %agg.tmp = alloca %"class.std::function.233", align 8
  tail call void @_ZN4node11Environment15InitializeLibuvEv(ptr noundef nonnull align 8 dereferenceable(2872) %env) #12
  tail call void @_ZN4node11Environment21InitializeDiagnosticsEv(ptr noundef nonnull align 8 dereferenceable(2872) %env) #12
  %_M_manager.i.i.i = getelementptr inbounds i8, ptr %cb, i64 16
  call void @llvm.memset.p0.i64(ptr noundef nonnull align 8 dereferenceable(32) %agg.tmp, i8 0, i64 32, i1 false)
  %0 = load ptr, ptr %_M_manager.i.i.i, align 8
  %tobool.not.i.i.not.i = icmp eq ptr %0, null
  br i1 %tobool.not.i.i.not.i, label %_ZNSt8functionIFN2v810MaybeLocalINS0_5ValueEEERKN4node26StartExecutionCallbackInfoEEEC2ERKS9_.exit, label %if.then.i

if.then.i:                                        ; preds = %entry
  %_M_manager.i.i = getelementptr inbounds i8, ptr %agg.tmp, i64 16
  %call3.i = call noundef zeroext i1 %0(ptr noundef nonnull align 8 dereferenceable(16) %agg.tmp, ptr noundef nonnull align 8 dereferenceable(16) %cb, i32 noundef 2) #12
  %1 = load <2 x ptr>, ptr %_M_manager.i.i.i, align 8
  store <2 x ptr> %1, ptr %_M_manager.i.i, align 8
  br label %_ZNSt8functionIFN2v810MaybeLocalINS0_5ValueEEERKN4node26StartExecutionCallbackInfoEEEC2ERKS9_.exit

_ZNSt8functionIFN2v810MaybeLocalINS0_5ValueEEERKN4node26StartExecutionCallbackInfoEEEC2ERKS9_.exit: ; preds = %entry, %if.then.i
  %call = call ptr @_ZN4node14StartExecutionEPNS_11EnvironmentESt8functionIFN2v810MaybeLocalINS3_5ValueEEERKNS_26StartExecutionCallbackInfoEEE(ptr noundef nonnull %env, ptr noundef nonnull %agg.tmp) #12
  %_M_manager.i.i3 = getelementptr inbounds i8, ptr %agg.tmp, i64 16
  %2 = load ptr, ptr %_M_manager.i.i3, align 8
  %tobool.not.i.i = icmp eq ptr %2, null
  br i1 %tobool.not.i.i, label %_ZNSt8functionIFN2v810MaybeLocalINS0_5ValueEEERKN4node26StartExecutionCallbackInfoEEED2Ev.exit, label %if.then.i.i

if.then.i.i:                                      ; preds = %_ZNSt8functionIFN2v810MaybeLocalINS0_5ValueEEERKN4node26StartExecutionCallbackInfoEEEC2ERKS9_.exit
  %call.i.i = call noundef zeroext i1 %2(ptr noundef nonnull align 8 dereferenceable(16) %agg.tmp, ptr noundef nonnull align 8 dereferenceable(16) %agg.tmp, i32 noundef 3) #12
  br label %_ZNSt8functionIFN2v810MaybeLocalINS0_5ValueEEERKN4node26StartExecutionCallbackInfoEEED2Ev.exit

_ZNSt8functionIFN2v810MaybeLocalINS0_5ValueEEERKN4node26StartExecutionCallbackInfoEEED2Ev.exit: ; preds = %_ZNSt8functionIFN2v810MaybeLocalINS0_5ValueEEERKN4node26StartExecutionCallbackInfoEEEC2ERKS9_.exit, %if.then.i.i
  ret ptr %call
}